; Function Attrs: mustprogress uwtable
define hidden void @_ZN16fpa2bv_converter10mk_max_expEjR7obj_refI4expr11ast_managerE(ptr noundef nonnull align 8 dereferenceable(496) %0, i32 noundef %1, ptr noundef nonnull align 8 captures(none) dereferenceable(16) %2) local_unnamed_addr #3 align 2 personality ptr @__gxx_personality_v0 {
  %4 = alloca %class.rational, align 8
  %5 = getelementptr inbounds nuw i8, ptr %0, i64 88
  call void @llvm.lifetime.start.p0(i64 32, ptr nonnull %4) #23
  %6 = getelementptr inbounds nuw i8, ptr %0, i64 352
  %7 = load ptr, ptr %6, align 8, !tbaa !234
  %8 = getelementptr inbounds nuw i8, ptr %7, i64 736
  %9 = add i32 %1, -1
  %10 = tail call noundef nonnull align 8 dereferenceable(16) ptr @_ZN11mpf_manager7powers22m1Ejb(ptr noundef nonnull align 8 dereferenceable(104) %8, i32 noundef %9, i1 noundef zeroext false)
  store i32 0, ptr %4, align 8, !tbaa !238
  %11 = getelementptr inbounds nuw i8, ptr %4, i64 4
  store i8 0, ptr %11, align 4
  %12 = getelementptr inbounds nuw i8, ptr %4, i64 8
  store ptr null, ptr %12, align 8, !tbaa !239
  %13 = getelementptr inbounds nuw i8, ptr %4, i64 16
  store i32 1, ptr %13, align 8, !tbaa !238
  %14 = getelementptr inbounds nuw i8, ptr %4, i64 20
  store i8 0, ptr %14, align 4
  %15 = getelementptr inbounds nuw i8, ptr %4, i64 24
  store ptr null, ptr %15, align 8, !tbaa !239
  %16 = load ptr, ptr @_ZN8rational13g_mpq_managerE, align 8, !tbaa !240
  %17 = getelementptr inbounds nuw i8, ptr %10, i64 4
  %18 = load i8, ptr %17, align 4
  %19 = and i8 %18, 1
  %20 = icmp eq i8 %19, 0
  br i1 %20, label %21, label %23

21:                                               ; preds = %3
  %22 = load i32, ptr %10, align 8, !tbaa !238
  store i32 %22, ptr %4, align 8, !tbaa !238
  store i8 0, ptr %11, align 4
  br label %_ZN8rationalC2ERK3mpz.exit

23:                                               ; preds = %3
  call void @_ZN11mpz_managerILb1EE7big_setER3mpzRKS1_(ptr noundef nonnull align 8 dereferenceable(728) %16, ptr noundef nonnull align 8 dereferenceable(32) %4, ptr noundef nonnull align 8 dereferenceable(16) %10)
  br label %_ZN8rationalC2ERK3mpz.exit

_ZN8rationalC2ERK3mpz.exit:                       ; preds = %21, %23
  call void @_ZN11mpz_managerILb1EE3delEPS0_R3mpz(ptr noundef nonnull align 8 dereferenceable(728) %16, ptr noundef nonnull align 8 dereferenceable(16) %13)
  store i32 1, ptr %13, align 8, !tbaa !238
  %24 = load i8, ptr %14, align 4
  %25 = and i8 %24, -2
  store i8 %25, ptr %14, align 4
  %26 = invoke noundef ptr @_ZNK7bv_util10mk_numeralERK8rationalj(ptr noundef nonnull align 8 dereferenceable(24) %5, ptr noundef nonnull align 8 dereferenceable(32) %4, i32 noundef %1)
          to label %27 unwind label %46

27:                                               ; preds = %_ZN8rationalC2ERK3mpz.exit
  %.not.i = icmp eq ptr %26, null
  br i1 %.not.i, label %31, label %_ZN11ast_manager7inc_refEP3ast.exit.i

_ZN11ast_manager7inc_refEP3ast.exit.i:            ; preds = %27
  %28 = getelementptr inbounds nuw i8, ptr %26, i64 8
  %29 = load i32, ptr %28, align 4, !tbaa !125
  %30 = add i32 %29, 1
  store i32 %30, ptr %28, align 4, !tbaa !125
  br label %31

31:                                               ; preds = %_ZN11ast_manager7inc_refEP3ast.exit.i, %27
  %32 = load ptr, ptr %2, align 8, !tbaa !164
  %.not.i4.i = icmp eq ptr %32, null
  br i1 %.not.i4.i, label %41, label %33

33:                                               ; preds = %31
  %34 = getelementptr inbounds nuw i8, ptr %2, i64 8
  %35 = load ptr, ptr %34, align 8, !tbaa !166
  %36 = getelementptr inbounds nuw i8, ptr %32, i64 8
  %37 = load i32, ptr %36, align 4, !tbaa !125
  %38 = add i32 %37, -1
  store i32 %38, ptr %36, align 4, !tbaa !125
  %39 = icmp eq i32 %38, 0
  br i1 %39, label %40, label %41

40:                                               ; preds = %33
  invoke void @_ZN11ast_manager11delete_nodeEP3ast(ptr noundef nonnull align 8 dereferenceable(976) %35, ptr noundef nonnull %32)
          to label %41 unwind label %46

41:                                               ; preds = %33, %31, %40
  store ptr %26, ptr %2, align 8, !tbaa !164
  %42 = load ptr, ptr @_ZN8rational13g_mpq_managerE, align 8, !tbaa !240
  invoke void @_ZN11mpz_managerILb1EE3delEPS0_R3mpz(ptr noundef %42, ptr noundef nonnull align 8 dereferenceable(32) %4)
          to label %.noexc.i unwind label %43

.noexc.i:                                         ; preds = %41
  invoke void @_ZN11mpz_managerILb1EE3delEPS0_R3mpz(ptr noundef %42, ptr noundef nonnull align 8 dereferenceable(16) %13)
          to label %_ZN8rationalD2Ev.exit unwind label %43

43:                                               ; preds = %.noexc.i, %41
  %44 = landingpad { ptr, i32 }
          catch ptr null
  %45 = extractvalue { ptr, i32 } %44, 0
  call void @__clang_call_terminate(ptr %45) #24
  unreachable

_ZN8rationalD2Ev.exit:                            ; preds = %.noexc.i
  call void @llvm.lifetime.end.p0(i64 32, ptr nonnull %4) #23
  ret void

46:                                               ; preds = %40, %_ZN8rationalC2ERK3mpz.exit
  %47 = landingpad { ptr, i32 }
          cleanup
  call void @_ZN8rationalD2Ev(ptr noundef nonnull align 8 dereferenceable(32) %4) #23
  call void @llvm.lifetime.end.p0(i64 32, ptr nonnull %4) #23
  resume { ptr, i32 } %47
}